

Microchip Technology PIC LITE Macro Assembler V1.34 build -361300703 
                                                                                               Thu May 02 12:15:21 2024

Microchip Technology Omniscient Code Generator (Lite mode) build 201502162209
     1                           	processor	16F1829
     2                           	opt	pw 120
     3                           	opt	lm
     4                           	psect	idataBANK0,global,class=CODE,delta=2
     5                           	psect	cinit,global,class=CODE,merge=1,delta=2
     6                           	psect	dataBANK0,global,class=BANK0,space=1,delta=1
     7                           	psect	inittext,global,class=CODE,delta=2
     8                           	psect	cstackCOMMON,global,class=COMMON,space=1,delta=1
     9                           	psect	cstackBANK0,global,class=BANK0,space=1,delta=1
    10                           	psect	maintext,global,class=CODE,merge=1,split=1,delta=2
    11                           	psect	text1,local,class=CODE,merge=1,delta=2
    12                           	psect	text2,local,class=CODE,merge=1,delta=2
    13                           	psect	text3,local,class=CODE,merge=1,delta=2
    14                           	psect	text4,local,class=CODE,merge=1,delta=2
    15                           	psect	text5,local,class=CODE,merge=1,delta=2
    16                           	psect	intentry,global,class=CODE,delta=2
    17                           	psect	text7,local,class=CODE,merge=1,delta=2
    18                           	dabs	1,0x7E,2
    19  0000                     	;# 
    20  0001                     	;# 
    21  0002                     	;# 
    22  0003                     	;# 
    23  0004                     	;# 
    24  0005                     	;# 
    25  0006                     	;# 
    26  0007                     	;# 
    27  0008                     	;# 
    28  0009                     	;# 
    29  000A                     	;# 
    30  000B                     	;# 
    31  000C                     	;# 
    32  000D                     	;# 
    33  000E                     	;# 
    34  0011                     	;# 
    35  0012                     	;# 
    36  0013                     	;# 
    37  0014                     	;# 
    38  0015                     	;# 
    39  0016                     	;# 
    40  0016                     	;# 
    41  0017                     	;# 
    42  0018                     	;# 
    43  0019                     	;# 
    44  001A                     	;# 
    45  001B                     	;# 
    46  001C                     	;# 
    47  001E                     	;# 
    48  001F                     	;# 
    49  008C                     	;# 
    50  008D                     	;# 
    51  008E                     	;# 
    52  0091                     	;# 
    53  0092                     	;# 
    54  0093                     	;# 
    55  0094                     	;# 
    56  0095                     	;# 
    57  0096                     	;# 
    58  0097                     	;# 
    59  0098                     	;# 
    60  0099                     	;# 
    61  009A                     	;# 
    62  009B                     	;# 
    63  009B                     	;# 
    64  009C                     	;# 
    65  009D                     	;# 
    66  009E                     	;# 
    67  010C                     	;# 
    68  010D                     	;# 
    69  010E                     	;# 
    70  0111                     	;# 
    71  0112                     	;# 
    72  0113                     	;# 
    73  0114                     	;# 
    74  0115                     	;# 
    75  0116                     	;# 
    76  0117                     	;# 
    77  0118                     	;# 
    78  0119                     	;# 
    79  011A                     	;# 
    80  011B                     	;# 
    81  011D                     	;# 
    82  011E                     	;# 
    83  018C                     	;# 
    84  018D                     	;# 
    85  018E                     	;# 
    86  0191                     	;# 
    87  0191                     	;# 
    88  0192                     	;# 
    89  0193                     	;# 
    90  0193                     	;# 
    91  0193                     	;# 
    92  0194                     	;# 
    93  0195                     	;# 
    94  0196                     	;# 
    95  0199                     	;# 
    96  019A                     	;# 
    97  019B                     	;# 
    98  019B                     	;# 
    99  019C                     	;# 
   100  019D                     	;# 
   101  019E                     	;# 
   102  019F                     	;# 
   103  020C                     	;# 
   104  020D                     	;# 
   105  020E                     	;# 
   106  0211                     	;# 
   107  0211                     	;# 
   108  0212                     	;# 
   109  0212                     	;# 
   110  0213                     	;# 
   111  0213                     	;# 
   112  0214                     	;# 
   113  0214                     	;# 
   114  0215                     	;# 
   115  0215                     	;# 
   116  0215                     	;# 
   117  0216                     	;# 
   118  0216                     	;# 
   119  0217                     	;# 
   120  0217                     	;# 
   121  0219                     	;# 
   122  021A                     	;# 
   123  021B                     	;# 
   124  021C                     	;# 
   125  021D                     	;# 
   126  021E                     	;# 
   127  021F                     	;# 
   128  0291                     	;# 
   129  0291                     	;# 
   130  0292                     	;# 
   131  0293                     	;# 
   132  0294                     	;# 
   133  0295                     	;# 
   134  0295                     	;# 
   135  0296                     	;# 
   136  0298                     	;# 
   137  0298                     	;# 
   138  0299                     	;# 
   139  029A                     	;# 
   140  029B                     	;# 
   141  029C                     	;# 
   142  029D                     	;# 
   143  029E                     	;# 
   144  0311                     	;# 
   145  0311                     	;# 
   146  0312                     	;# 
   147  0313                     	;# 
   148  0318                     	;# 
   149  0318                     	;# 
   150  0319                     	;# 
   151  031A                     	;# 
   152  038C                     	;# 
   153  038D                     	;# 
   154  038E                     	;# 
   155  0391                     	;# 
   156  0392                     	;# 
   157  0393                     	;# 
   158  0394                     	;# 
   159  0395                     	;# 
   160  0396                     	;# 
   161  039A                     	;# 
   162  039C                     	;# 
   163  039D                     	;# 
   164  039E                     	;# 
   165  039F                     	;# 
   166  0415                     	;# 
   167  0416                     	;# 
   168  0417                     	;# 
   169  041C                     	;# 
   170  041D                     	;# 
   171  041E                     	;# 
   172  0FE4                     	;# 
   173  0FE5                     	;# 
   174  0FE6                     	;# 
   175  0FE7                     	;# 
   176  0FE8                     	;# 
   177  0FE9                     	;# 
   178  0FEA                     	;# 
   179  0FEB                     	;# 
   180  0FED                     	;# 
   181  0FEE                     	;# 
   182  0FEF                     	;# 
   183  0000                     	;# 
   184  0001                     	;# 
   185  0002                     	;# 
   186  0003                     	;# 
   187  0004                     	;# 
   188  0005                     	;# 
   189  0006                     	;# 
   190  0007                     	;# 
   191  0008                     	;# 
   192  0009                     	;# 
   193  000A                     	;# 
   194  000B                     	;# 
   195  000C                     	;# 
   196  000D                     	;# 
   197  000E                     	;# 
   198  0011                     	;# 
   199  0012                     	;# 
   200  0013                     	;# 
   201  0014                     	;# 
   202  0015                     	;# 
   203  0016                     	;# 
   204  0016                     	;# 
   205  0017                     	;# 
   206  0018                     	;# 
   207  0019                     	;# 
   208  001A                     	;# 
   209  001B                     	;# 
   210  001C                     	;# 
   211  001E                     	;# 
   212  001F                     	;# 
   213  008C                     	;# 
   214  008D                     	;# 
   215  008E                     	;# 
   216  0091                     	;# 
   217  0092                     	;# 
   218  0093                     	;# 
   219  0094                     	;# 
   220  0095                     	;# 
   221  0096                     	;# 
   222  0097                     	;# 
   223  0098                     	;# 
   224  0099                     	;# 
   225  009A                     	;# 
   226  009B                     	;# 
   227  009B                     	;# 
   228  009C                     	;# 
   229  009D                     	;# 
   230  009E                     	;# 
   231  010C                     	;# 
   232  010D                     	;# 
   233  010E                     	;# 
   234  0111                     	;# 
   235  0112                     	;# 
   236  0113                     	;# 
   237  0114                     	;# 
   238  0115                     	;# 
   239  0116                     	;# 
   240  0117                     	;# 
   241  0118                     	;# 
   242  0119                     	;# 
   243  011A                     	;# 
   244  011B                     	;# 
   245  011D                     	;# 
   246  011E                     	;# 
   247  018C                     	;# 
   248  018D                     	;# 
   249  018E                     	;# 
   250  0191                     	;# 
   251  0191                     	;# 
   252  0192                     	;# 
   253  0193                     	;# 
   254  0193                     	;# 
   255  0193                     	;# 
   256  0194                     	;# 
   257  0195                     	;# 
   258  0196                     	;# 
   259  0199                     	;# 
   260  019A                     	;# 
   261  019B                     	;# 
   262  019B                     	;# 
   263  019C                     	;# 
   264  019D                     	;# 
   265  019E                     	;# 
   266  019F                     	;# 
   267  020C                     	;# 
   268  020D                     	;# 
   269  020E                     	;# 
   270  0211                     	;# 
   271  0211                     	;# 
   272  0212                     	;# 
   273  0212                     	;# 
   274  0213                     	;# 
   275  0213                     	;# 
   276  0214                     	;# 
   277  0214                     	;# 
   278  0215                     	;# 
   279  0215                     	;# 
   280  0215                     	;# 
   281  0216                     	;# 
   282  0216                     	;# 
   283  0217                     	;# 
   284  0217                     	;# 
   285  0219                     	;# 
   286  021A                     	;# 
   287  021B                     	;# 
   288  021C                     	;# 
   289  021D                     	;# 
   290  021E                     	;# 
   291  021F                     	;# 
   292  0291                     	;# 
   293  0291                     	;# 
   294  0292                     	;# 
   295  0293                     	;# 
   296  0294                     	;# 
   297  0295                     	;# 
   298  0295                     	;# 
   299  0296                     	;# 
   300  0298                     	;# 
   301  0298                     	;# 
   302  0299                     	;# 
   303  029A                     	;# 
   304  029B                     	;# 
   305  029C                     	;# 
   306  029D                     	;# 
   307  029E                     	;# 
   308  0311                     	;# 
   309  0311                     	;# 
   310  0312                     	;# 
   311  0313                     	;# 
   312  0318                     	;# 
   313  0318                     	;# 
   314  0319                     	;# 
   315  031A                     	;# 
   316  038C                     	;# 
   317  038D                     	;# 
   318  038E                     	;# 
   319  0391                     	;# 
   320  0392                     	;# 
   321  0393                     	;# 
   322  0394                     	;# 
   323  0395                     	;# 
   324  0396                     	;# 
   325  039A                     	;# 
   326  039C                     	;# 
   327  039D                     	;# 
   328  039E                     	;# 
   329  039F                     	;# 
   330  0415                     	;# 
   331  0416                     	;# 
   332  0417                     	;# 
   333  041C                     	;# 
   334  041D                     	;# 
   335  041E                     	;# 
   336  0FE4                     	;# 
   337  0FE5                     	;# 
   338  0FE6                     	;# 
   339  0FE7                     	;# 
   340  0FE8                     	;# 
   341  0FE9                     	;# 
   342  0FEA                     	;# 
   343  0FEB                     	;# 
   344  0FED                     	;# 
   345  0FEE                     	;# 
   346  0FEF                     	;# 
   347  0000                     	;# 
   348  0001                     	;# 
   349  0002                     	;# 
   350  0003                     	;# 
   351  0004                     	;# 
   352  0005                     	;# 
   353  0006                     	;# 
   354  0007                     	;# 
   355  0008                     	;# 
   356  0009                     	;# 
   357  000A                     	;# 
   358  000B                     	;# 
   359  000C                     	;# 
   360  000D                     	;# 
   361  000E                     	;# 
   362  0011                     	;# 
   363  0012                     	;# 
   364  0013                     	;# 
   365  0014                     	;# 
   366  0015                     	;# 
   367  0016                     	;# 
   368  0016                     	;# 
   369  0017                     	;# 
   370  0018                     	;# 
   371  0019                     	;# 
   372  001A                     	;# 
   373  001B                     	;# 
   374  001C                     	;# 
   375  001E                     	;# 
   376  001F                     	;# 
   377  008C                     	;# 
   378  008D                     	;# 
   379  008E                     	;# 
   380  0091                     	;# 
   381  0092                     	;# 
   382  0093                     	;# 
   383  0094                     	;# 
   384  0095                     	;# 
   385  0096                     	;# 
   386  0097                     	;# 
   387  0098                     	;# 
   388  0099                     	;# 
   389  009A                     	;# 
   390  009B                     	;# 
   391  009B                     	;# 
   392  009C                     	;# 
   393  009D                     	;# 
   394  009E                     	;# 
   395  010C                     	;# 
   396  010D                     	;# 
   397  010E                     	;# 
   398  0111                     	;# 
   399  0112                     	;# 
   400  0113                     	;# 
   401  0114                     	;# 
   402  0115                     	;# 
   403  0116                     	;# 
   404  0117                     	;# 
   405  0118                     	;# 
   406  0119                     	;# 
   407  011A                     	;# 
   408  011B                     	;# 
   409  011D                     	;# 
   410  011E                     	;# 
   411  018C                     	;# 
   412  018D                     	;# 
   413  018E                     	;# 
   414  0191                     	;# 
   415  0191                     	;# 
   416  0192                     	;# 
   417  0193                     	;# 
   418  0193                     	;# 
   419  0193                     	;# 
   420  0194                     	;# 
   421  0195                     	;# 
   422  0196                     	;# 
   423  0199                     	;# 
   424  019A                     	;# 
   425  019B                     	;# 
   426  019B                     	;# 
   427  019C                     	;# 
   428  019D                     	;# 
   429  019E                     	;# 
   430  019F                     	;# 
   431  020C                     	;# 
   432  020D                     	;# 
   433  020E                     	;# 
   434  0211                     	;# 
   435  0211                     	;# 
   436  0212                     	;# 
   437  0212                     	;# 
   438  0213                     	;# 
   439  0213                     	;# 
   440  0214                     	;# 
   441  0214                     	;# 
   442  0215                     	;# 
   443  0215                     	;# 
   444  0215                     	;# 
   445  0216                     	;# 
   446  0216                     	;# 
   447  0217                     	;# 
   448  0217                     	;# 
   449  0219                     	;# 
   450  021A                     	;# 
   451  021B                     	;# 
   452  021C                     	;# 
   453  021D                     	;# 
   454  021E                     	;# 
   455  021F                     	;# 
   456  0291                     	;# 
   457  0291                     	;# 
   458  0292                     	;# 
   459  0293                     	;# 
   460  0294                     	;# 
   461  0295                     	;# 
   462  0295                     	;# 
   463  0296                     	;# 
   464  0298                     	;# 
   465  0298                     	;# 
   466  0299                     	;# 
   467  029A                     	;# 
   468  029B                     	;# 
   469  029C                     	;# 
   470  029D                     	;# 
   471  029E                     	;# 
   472  0311                     	;# 
   473  0311                     	;# 
   474  0312                     	;# 
   475  0313                     	;# 
   476  0318                     	;# 
   477  0318                     	;# 
   478  0319                     	;# 
   479  031A                     	;# 
   480  038C                     	;# 
   481  038D                     	;# 
   482  038E                     	;# 
   483  0391                     	;# 
   484  0392                     	;# 
   485  0393                     	;# 
   486  0394                     	;# 
   487  0395                     	;# 
   488  0396                     	;# 
   489  039A                     	;# 
   490  039C                     	;# 
   491  039D                     	;# 
   492  039E                     	;# 
   493  039F                     	;# 
   494  0415                     	;# 
   495  0416                     	;# 
   496  0417                     	;# 
   497  041C                     	;# 
   498  041D                     	;# 
   499  041E                     	;# 
   500  0FE4                     	;# 
   501  0FE5                     	;# 
   502  0FE6                     	;# 
   503  0FE7                     	;# 
   504  0FE8                     	;# 
   505  0FE9                     	;# 
   506  0FEA                     	;# 
   507  0FEB                     	;# 
   508  0FED                     	;# 
   509  0FEE                     	;# 
   510  0FEF                     	;# 
   511  0000                     	;# 
   512  0001                     	;# 
   513  0002                     	;# 
   514  0003                     	;# 
   515  0004                     	;# 
   516  0005                     	;# 
   517  0006                     	;# 
   518  0007                     	;# 
   519  0008                     	;# 
   520  0009                     	;# 
   521  000A                     	;# 
   522  000B                     	;# 
   523  000C                     	;# 
   524  000D                     	;# 
   525  000E                     	;# 
   526  0011                     	;# 
   527  0012                     	;# 
   528  0013                     	;# 
   529  0014                     	;# 
   530  0015                     	;# 
   531  0016                     	;# 
   532  0016                     	;# 
   533  0017                     	;# 
   534  0018                     	;# 
   535  0019                     	;# 
   536  001A                     	;# 
   537  001B                     	;# 
   538  001C                     	;# 
   539  001E                     	;# 
   540  001F                     	;# 
   541  008C                     	;# 
   542  008D                     	;# 
   543  008E                     	;# 
   544  0091                     	;# 
   545  0092                     	;# 
   546  0093                     	;# 
   547  0094                     	;# 
   548  0095                     	;# 
   549  0096                     	;# 
   550  0097                     	;# 
   551  0098                     	;# 
   552  0099                     	;# 
   553  009A                     	;# 
   554  009B                     	;# 
   555  009B                     	;# 
   556  009C                     	;# 
   557  009D                     	;# 
   558  009E                     	;# 
   559  010C                     	;# 
   560  010D                     	;# 
   561  010E                     	;# 
   562  0111                     	;# 
   563  0112                     	;# 
   564  0113                     	;# 
   565  0114                     	;# 
   566  0115                     	;# 
   567  0116                     	;# 
   568  0117                     	;# 
   569  0118                     	;# 
   570  0119                     	;# 
   571  011A                     	;# 
   572  011B                     	;# 
   573  011D                     	;# 
   574  011E                     	;# 
   575  018C                     	;# 
   576  018D                     	;# 
   577  018E                     	;# 
   578  0191                     	;# 
   579  0191                     	;# 
   580  0192                     	;# 
   581  0193                     	;# 
   582  0193                     	;# 
   583  0193                     	;# 
   584  0194                     	;# 
   585  0195                     	;# 
   586  0196                     	;# 
   587  0199                     	;# 
   588  019A                     	;# 
   589  019B                     	;# 
   590  019B                     	;# 
   591  019C                     	;# 
   592  019D                     	;# 
   593  019E                     	;# 
   594  019F                     	;# 
   595  020C                     	;# 
   596  020D                     	;# 
   597  020E                     	;# 
   598  0211                     	;# 
   599  0211                     	;# 
   600  0212                     	;# 
   601  0212                     	;# 
   602  0213                     	;# 
   603  0213                     	;# 
   604  0214                     	;# 
   605  0214                     	;# 
   606  0215                     	;# 
   607  0215                     	;# 
   608  0215                     	;# 
   609  0216                     	;# 
   610  0216                     	;# 
   611  0217                     	;# 
   612  0217                     	;# 
   613  0219                     	;# 
   614  021A                     	;# 
   615  021B                     	;# 
   616  021C                     	;# 
   617  021D                     	;# 
   618  021E                     	;# 
   619  021F                     	;# 
   620  0291                     	;# 
   621  0291                     	;# 
   622  0292                     	;# 
   623  0293                     	;# 
   624  0294                     	;# 
   625  0295                     	;# 
   626  0295                     	;# 
   627  0296                     	;# 
   628  0298                     	;# 
   629  0298                     	;# 
   630  0299                     	;# 
   631  029A                     	;# 
   632  029B                     	;# 
   633  029C                     	;# 
   634  029D                     	;# 
   635  029E                     	;# 
   636  0311                     	;# 
   637  0311                     	;# 
   638  0312                     	;# 
   639  0313                     	;# 
   640  0318                     	;# 
   641  0318                     	;# 
   642  0319                     	;# 
   643  031A                     	;# 
   644  038C                     	;# 
   645  038D                     	;# 
   646  038E                     	;# 
   647  0391                     	;# 
   648  0392                     	;# 
   649  0393                     	;# 
   650  0394                     	;# 
   651  0395                     	;# 
   652  0396                     	;# 
   653  039A                     	;# 
   654  039C                     	;# 
   655  039D                     	;# 
   656  039E                     	;# 
   657  039F                     	;# 
   658  0415                     	;# 
   659  0416                     	;# 
   660  0417                     	;# 
   661  041C                     	;# 
   662  041D                     	;# 
   663  041E                     	;# 
   664  0FE4                     	;# 
   665  0FE5                     	;# 
   666  0FE6                     	;# 
   667  0FE7                     	;# 
   668  0FE8                     	;# 
   669  0FE9                     	;# 
   670  0FEA                     	;# 
   671  0FEB                     	;# 
   672  0FED                     	;# 
   673  0FEE                     	;# 
   674  0FEF                     	;# 
   675                           
   676                           	psect	idataBANK0
   677  018A                     __pidataBANK0:	
   678                           
   679                           ;initializer for _Digit
   680  018A  3403               	retlw	3
   681  018B  349F               	retlw	159
   682  018C  3425               	retlw	37
   683  018D  340D               	retlw	13
   684  018E  3499               	retlw	153
   685  018F  3449               	retlw	73
   686  0190  3441               	retlw	65
   687  0191  341F               	retlw	31
   688  0192  3401               	retlw	1
   689  0193  3409               	retlw	9
   690  000B                     _INTCONbits	set	11
   691  000D                     _PORTBbits	set	13
   692  000E                     _PORTC	set	14
   693  0095                     _OPTION_REGbits	set	149
   694  0099                     _OSCCON	set	153
   695  009A                     _OSCSTAT	set	154
   696  0098                     _OSCTUNE	set	152
   697  008C                     _TRISA	set	140
   698  008D                     _TRISB	set	141
   699  008E                     _TRISC	set	142
   700  011D                     _APFCON0	set	285
   701  011E                     _APFCON1	set	286
   702  010C                     _LATA	set	268
   703  010D                     _LATB	set	269
   704  010E                     _LATC	set	270
   705  010E                     _LATCbits	set	270
   706  018C                     _ANSELA	set	396
   707  018D                     _ANSELB	set	397
   708  018E                     _ANSELC	set	398
   709  020C                     _WPUA	set	524
   710  020D                     _WPUB	set	525
   711  020E                     _WPUC	set	526
   712  1CB4                     _IOCBF4	set	7348
   713  1CB5                     _IOCBF5	set	7349
   714  1CB6                     _IOCBF6	set	7350
   715  1CB7                     _IOCBF7	set	7351
   716  1CAC                     _IOCBN4	set	7340
   717  1CAD                     _IOCBN5	set	7341
   718  1CAE                     _IOCBN6	set	7342
   719  1CAF                     _IOCBN7	set	7343
   720                           
   721                           ; #config settings
   722  0000                     
   723                           	psect	cinit
   724  0014                     start_initialization:	
   725  0014                     __initialization:	
   726                           
   727                           ; Initialize objects allocated to BANK0
   728  0014  308A               	movlw	low __pidataBANK0
   729  0015  0084               	movwf	4
   730  0016  3081               	movlw	(high __pidataBANK0)| (0+128)
   731  0017  0085               	movwf	5
   732  0018  3020               	movlw	low __pdataBANK0
   733  0019  0086               	movwf	6
   734  001A  3000               	movlw	high __pdataBANK0
   735  001B  0087               	movwf	7
   736  001C  300A               	movlw	10
   737  001D  3181  219C         	fcall	init_ram
   738  001F                     end_of_initialization:	
   739                           ;End of C runtime variable initialization code
   740                           
   741  001F                     __end_of__initialization:	
   742  001F  0020               	movlb	0
   743  0020  3181  2958         	ljmp	_main	;jump to C main() function
   744                           
   745                           	psect	dataBANK0
   746  0020                     __pdataBANK0:	
   747  0020                     _Digit:	
   748  0020                     	ds	10
   749                           
   750                           	psect	inittext
   751  019C                     init_ram:	
   752  019C  00FE               	movwf	126
   753  019D                     initloop:	
   754  019D  0012               	moviw fsr0++
   755  019E  001E               	movwi fsr1++
   756  019F  0BFE               	decfsz	126,f
   757  01A0  299D               	goto	initloop
   758  01A1  3400               	retlw	0
   759                           
   760                           	psect	cstackCOMMON
   761  0070                     __pcstackCOMMON:	
   762  0070                     ?_PIN_MANAGER_IOC:	
   763  0070                     ??_PIN_MANAGER_IOC:	
   764                           ; 0 bytes @ 0x0
   765                           
   766  0070                     ?_INTERRUPT_InterruptManager:	
   767                           ; 0 bytes @ 0x0
   768                           
   769  0070                     ??_INTERRUPT_InterruptManager:	
   770                           ; 0 bytes @ 0x0
   771                           
   772  0070                     ?_writeDigit:	
   773                           ; 0 bytes @ 0x0
   774                           
   775  0070                     ?_relay_control:	
   776                           ; 0 bytes @ 0x0
   777                           
   778  0070                     ?_main:	
   779                           ; 0 bytes @ 0x0
   780                           
   781                           
   782                           ; 0 bytes @ 0x0
   783  0070                     	ds	1
   784  0071                     ??_writeDigit:	
   785  0071                     ??_relay_control:	
   786                           ; 0 bytes @ 0x1
   787                           
   788  0071                     ?___lwdiv:	
   789                           ; 0 bytes @ 0x1
   790                           
   791  0071                     ?___lwmod:	
   792                           ; 2 bytes @ 0x1
   793                           
   794  0071                     relay_control@state:	
   795                           ; 2 bytes @ 0x1
   796                           
   797  0071                     ___lwdiv@divisor:	
   798                           ; 1 bytes @ 0x1
   799                           
   800  0071                     ___lwmod@divisor:	
   801                           ; 2 bytes @ 0x1
   802                           
   803                           
   804                           ; 2 bytes @ 0x1
   805  0071                     	ds	2
   806  0073                     writeDigit@digit:	
   807  0073                     ___lwdiv@dividend:	
   808                           ; 1 bytes @ 0x3
   809                           
   810  0073                     ___lwmod@dividend:	
   811                           ; 2 bytes @ 0x3
   812                           
   813                           
   814                           ; 2 bytes @ 0x3
   815  0073                     	ds	1
   816  0074                     writeDigit@i:	
   817                           
   818                           ; 1 bytes @ 0x4
   819  0074                     	ds	1
   820  0075                     ??___lwdiv:	
   821  0075                     ??___lwmod:	
   822                           ; 0 bytes @ 0x5
   823                           
   824                           
   825                           ; 0 bytes @ 0x5
   826  0075                     	ds	1
   827  0076                     ___lwmod@counter:	
   828  0076                     ___lwdiv@quotient:	
   829                           ; 1 bytes @ 0x6
   830                           
   831                           
   832                           ; 2 bytes @ 0x6
   833  0076                     	ds	2
   834  0078                     ___lwdiv@counter:	
   835                           
   836                           ; 1 bytes @ 0x8
   837  0078                     	ds	1
   838  0079                     ?_displayNumber:	
   839  0079                     displayNumber@number1:	
   840                           ; 0 bytes @ 0x9
   841                           
   842                           
   843                           ; 2 bytes @ 0x9
   844  0079                     	ds	2
   845  007B                     ??_displayNumber:	
   846                           
   847                           ; 0 bytes @ 0xB
   848  007B                     	ds	2
   849  007D                     ??_main:	
   850                           
   851                           	psect	cstackBANK0
   852  002A                     __pcstackBANK0:	
   853                           ; 0 bytes @ 0xD
   854                           
   855  002A                     displayNumber@d1:	
   856                           
   857                           ; 1 bytes @ 0x0
   858  002A                     	ds	1
   859  002B                     displayNumber@d2:	
   860                           
   861                           ; 1 bytes @ 0x1
   862  002B                     	ds	1
   863  002C                     displayNumber@d3:	
   864                           
   865                           ; 1 bytes @ 0x2
   866  002C                     	ds	1
   867  002D                     displayNumber@d4:	
   868                           
   869                           ; 1 bytes @ 0x3
   870  002D                     	ds	1
   871                           
   872                           	psect	maintext
   873  0158                     __pmaintext:	
   874 ;;
   875 ;;Main: autosize = 0, tempsize = 0, incstack = 0, save=0
   876 ;;
   877 ;; *************** function _main *****************
   878 ;; Defined at:
   879 ;;		line 66 in file "main.c"
   880 ;; Parameters:    Size  Location     Type
   881 ;;		None
   882 ;; Auto vars:     Size  Location     Type
   883 ;;		None
   884 ;; Return value:  Size  Location     Type
   885 ;;		None               void
   886 ;; Registers used:
   887 ;;		wreg, fsr1l, fsr1h, status,2, status,0, pclath, cstack
   888 ;; Tracked objects:
   889 ;;		On entry : B1F/0
   890 ;;		On exit  : 0/0
   891 ;;		Unchanged: 0/0
   892 ;; Data sizes:     COMMON   BANK0   BANK1   BANK2   BANK3   BANK4   BANK5   BANK6   BANK7   BANK8   BANK9  BANK10  BANK1
      +1  BANK12
   893 ;;      Params:         0       0       0       0       0       0       0       0       0       0       0       0       
      +0       0
   894 ;;      Locals:         0       0       0       0       0       0       0       0       0       0       0       0       
      +0       0
   895 ;;      Temps:          0       0       0       0       0       0       0       0       0       0       0       0       
      +0       0
   896 ;;      Totals:         0       0       0       0       0       0       0       0       0       0       0       0       
      +0       0
   897 ;;Total ram usage:        0 bytes
   898 ;; Hardware stack levels required when called:    4
   899 ;; This function calls:
   900 ;;		_displayNumber
   901 ;;		_relay_control
   902 ;; This function is called by:
   903 ;;		Startup code after reset
   904 ;; This function uses a non-reentrant model
   905 ;;
   906                           
   907                           
   908                           ;psect for function _main
   909  0158                     _main:	
   910                           
   911                           ;main.c: 67: TRISC = 0x00;
   912                           
   913                           ;incstack = 0
   914                           ; Regs used in _main: [wreg+fsr1l+fsr1h+status,2+status,0+pclath+cstack]
   915  0158  0021               	movlb	1	; select bank1
   916  0159  018E               	clrf	14	;volatile
   917                           
   918                           ;main.c: 68: PORTC = 0x00;
   919  015A  0020               	movlb	0	; select bank0
   920  015B  018E               	clrf	14	;volatile
   921  015C  2968               	goto	l866
   922  015D                     l868:	
   923                           
   924                           ;main.c: 72: relay_control(1);
   925  015D  3001               	movlw	1
   926  015E  3181  2194  3181   	fcall	_relay_control
   927                           
   928                           ;main.c: 73: displayNumber(1111);
   929  0161  3057               	movlw	87
   930  0162  00F9               	movwf	displayNumber@number1
   931  0163  3004               	movlw	4
   932  0164                     L1:	
   933  0164  00FA               	movwf	displayNumber@number1+1
   934  0165  3180  2022  3181   	fcall	_displayNumber
   935  0168                     l866:	
   936                           ;main.c: 70: while (1) {
   937                           
   938                           ;main.c: 76: } else if (PORTBbits.RB6 == 0) {
   939                           
   940                           
   941                           ;main.c: 71: if (PORTBbits.RB7 == 1) {
   942  0168  0020               	movlb	0	; select bank0
   943  0169  1B8D               	btfsc	13,7	;volatile
   944  016A  295D               	goto	l868
   945  016B  1B0D               	btfsc	13,6	;volatile
   946  016C  2968               	goto	l866
   947                           
   948                           ;main.c: 77: relay_control(0);
   949  016D  3000               	movlw	0
   950  016E  3181  2194  3181   	fcall	_relay_control
   951                           
   952                           ;main.c: 78: displayNumber(0000);
   953  0171  3000               	movlw	0
   954  0172  00F9               	movwf	displayNumber@number1
   955  0173  2964               	goto	L1
   956  0174                     __end_of_main:	
   957                           
   958                           	psect	text1
   959  0194                     __ptext1:	
   960 ;; *************** function _relay_control *****************
   961 ;; Defined at:
   962 ;;		line 62 in file "main.c"
   963 ;; Parameters:    Size  Location     Type
   964 ;;  state           1    wreg     unsigned char 
   965 ;; Auto vars:     Size  Location     Type
   966 ;;  state           1    1[COMMON] unsigned char 
   967 ;; Return value:  Size  Location     Type
   968 ;;		None               void
   969 ;; Registers used:
   970 ;;		wreg
   971 ;; Tracked objects:
   972 ;;		On entry : 0/0
   973 ;;		On exit  : 0/0
   974 ;;		Unchanged: 0/0
   975 ;; Data sizes:     COMMON   BANK0   BANK1   BANK2   BANK3   BANK4   BANK5   BANK6   BANK7   BANK8   BANK9  BANK10  BANK1
      +1  BANK12
   976 ;;      Params:         0       0       0       0       0       0       0       0       0       0       0       0       
      +0       0
   977 ;;      Locals:         1       0       0       0       0       0       0       0       0       0       0       0       
      +0       0
   978 ;;      Temps:          0       0       0       0       0       0       0       0       0       0       0       0       
      +0       0
   979 ;;      Totals:         1       0       0       0       0       0       0       0       0       0       0       0       
      +0       0
   980 ;;Total ram usage:        1 bytes
   981 ;; Hardware stack levels used:    1
   982 ;; Hardware stack levels required when called:    2
   983 ;; This function calls:
   984 ;;		Nothing
   985 ;; This function is called by:
   986 ;;		_main
   987 ;; This function uses a non-reentrant model
   988 ;;
   989                           
   990                           
   991                           ;psect for function _relay_control
   992  0194                     _relay_control:	
   993                           
   994                           ;incstack = 0
   995                           ; Regs used in _relay_control: [wreg]
   996                           ;relay_control@state stored from wreg
   997  0194  00F1               	movwf	relay_control@state
   998                           
   999                           ;main.c: 63: LATCbits.LATC2 = state;
  1000  0195  0871               	movf	relay_control@state,w
  1001  0196  0022               	movlb	2	; select bank2
  1002  0197  1D03               	skipz
  1003  0198  150E               	bsf	14,2	;volatile
  1004  0199  1903               	skipnz
  1005  019A  110E               	bcf	14,2	;volatile
  1006  019B  0008               	return
  1007  019C                     __end_of_relay_control:	
  1008                           
  1009                           	psect	text2
  1010  0022                     __ptext2:	
  1011 ;; *************** function _displayNumber *****************
  1012 ;; Defined at:
  1013 ;;		line 31 in file "main.c"
  1014 ;; Parameters:    Size  Location     Type
  1015 ;;  number1         2    9[COMMON] unsigned int 
  1016 ;; Auto vars:     Size  Location     Type
  1017 ;;  d4              1    3[BANK0 ] unsigned char 
  1018 ;;  d3              1    2[BANK0 ] unsigned char 
  1019 ;;  d2              1    1[BANK0 ] unsigned char 
  1020 ;;  d1              1    0[BANK0 ] unsigned char 
  1021 ;; Return value:  Size  Location     Type
  1022 ;;		None               void
  1023 ;; Registers used:
  1024 ;;		wreg, fsr1l, fsr1h, status,2, status,0, pclath, cstack
  1025 ;; Tracked objects:
  1026 ;;		On entry : 0/0
  1027 ;;		On exit  : 0/0
  1028 ;;		Unchanged: 0/0
  1029 ;; Data sizes:     COMMON   BANK0   BANK1   BANK2   BANK3   BANK4   BANK5   BANK6   BANK7   BANK8   BANK9  BANK10  BANK1
      +1  BANK12
  1030 ;;      Params:         2       0       0       0       0       0       0       0       0       0       0       0       
      +0       0
  1031 ;;      Locals:         0       4       0       0       0       0       0       0       0       0       0       0       
      +0       0
  1032 ;;      Temps:          2       0       0       0       0       0       0       0       0       0       0       0       
      +0       0
  1033 ;;      Totals:         4       4       0       0       0       0       0       0       0       0       0       0       
      +0       0
  1034 ;;Total ram usage:        8 bytes
  1035 ;; Hardware stack levels used:    1
  1036 ;; Hardware stack levels required when called:    3
  1037 ;; This function calls:
  1038 ;;		___lwdiv
  1039 ;;		___lwmod
  1040 ;;		_writeDigit
  1041 ;; This function is called by:
  1042 ;;		_main
  1043 ;; This function uses a non-reentrant model
  1044 ;;
  1045                           
  1046                           
  1047                           ;psect for function _displayNumber
  1048  0022                     _displayNumber:	
  1049                           
  1050                           ;main.c: 32: unsigned char d1, d2, d3, d4;
  1051                           ;main.c: 34: d1 = number1 / 1000;
  1052                           
  1053                           ;incstack = 0
  1054                           ; Regs used in _displayNumber: [wreg+fsr1l+fsr1h+status,2+status,0+pclath+cstack]
  1055  0022  30E8               	movlw	232
  1056  0023  00F1               	movwf	___lwdiv@divisor
  1057  0024  3003               	movlw	3
  1058  0025  00F2               	movwf	___lwdiv@divisor+1
  1059  0026  087A               	movf	displayNumber@number1+1,w
  1060  0027  00F4               	movwf	___lwdiv@dividend+1
  1061  0028  0879               	movf	displayNumber@number1,w
  1062  0029  00F3               	movwf	___lwdiv@dividend
  1063  002A  3180  20D1  3180   	fcall	___lwdiv
  1064  002D  0871               	movf	?___lwdiv,w
  1065  002E  00FB               	movwf	??_displayNumber
  1066  002F  087B               	movf	??_displayNumber,w
  1067  0030  0020               	movlb	0	; select bank0
  1068  0031  00AA               	movwf	displayNumber@d1
  1069                           
  1070                           ;main.c: 35: number1 %= 1000;
  1071  0032  30E8               	movlw	232
  1072  0033  00F1               	movwf	___lwmod@divisor
  1073  0034  3003               	movlw	3
  1074  0035  00F2               	movwf	___lwmod@divisor+1
  1075  0036  087A               	movf	displayNumber@number1+1,w
  1076  0037  00F4               	movwf	___lwmod@dividend+1
  1077  0038  0879               	movf	displayNumber@number1,w
  1078  0039  00F3               	movwf	___lwmod@dividend
  1079  003A  3181  2105  3180   	fcall	___lwmod
  1080  003D  0872               	movf	?___lwmod+1,w
  1081  003E  00FA               	movwf	displayNumber@number1+1
  1082  003F  0871               	movf	?___lwmod,w
  1083  0040  00F9               	movwf	displayNumber@number1
  1084                           
  1085                           ;main.c: 36: d2 = number1 / 100;
  1086  0041  3064               	movlw	100
  1087  0042  00F1               	movwf	___lwdiv@divisor
  1088  0043  3000               	movlw	0
  1089  0044  00F2               	movwf	___lwdiv@divisor+1
  1090  0045  087A               	movf	displayNumber@number1+1,w
  1091  0046  00F4               	movwf	___lwdiv@dividend+1
  1092  0047  0879               	movf	displayNumber@number1,w
  1093  0048  00F3               	movwf	___lwdiv@dividend
  1094  0049  3180  20D1  3180   	fcall	___lwdiv
  1095  004C  0871               	movf	?___lwdiv,w
  1096  004D  00FB               	movwf	??_displayNumber
  1097  004E  087B               	movf	??_displayNumber,w
  1098  004F  0020               	movlb	0	; select bank0
  1099  0050  00AB               	movwf	displayNumber@d2
  1100                           
  1101                           ;main.c: 37: number1 %= 100;
  1102  0051  3064               	movlw	100
  1103  0052  00F1               	movwf	___lwmod@divisor
  1104  0053  3000               	movlw	0
  1105  0054  00F2               	movwf	___lwmod@divisor+1
  1106  0055  087A               	movf	displayNumber@number1+1,w
  1107  0056  00F4               	movwf	___lwmod@dividend+1
  1108  0057  0879               	movf	displayNumber@number1,w
  1109  0058  00F3               	movwf	___lwmod@dividend
  1110  0059  3181  2105  3180   	fcall	___lwmod
  1111  005C  0872               	movf	?___lwmod+1,w
  1112  005D  00FA               	movwf	displayNumber@number1+1
  1113  005E  0871               	movf	?___lwmod,w
  1114  005F  00F9               	movwf	displayNumber@number1
  1115                           
  1116                           ;main.c: 38: d3 = number1 / 10;
  1117  0060  300A               	movlw	10
  1118  0061  00F1               	movwf	___lwdiv@divisor
  1119  0062  3000               	movlw	0
  1120  0063  00F2               	movwf	___lwdiv@divisor+1
  1121  0064  087A               	movf	displayNumber@number1+1,w
  1122  0065  00F4               	movwf	___lwdiv@dividend+1
  1123  0066  0879               	movf	displayNumber@number1,w
  1124  0067  00F3               	movwf	___lwdiv@dividend
  1125  0068  3180  20D1  3180   	fcall	___lwdiv
  1126  006B  0871               	movf	?___lwdiv,w
  1127  006C  00FB               	movwf	??_displayNumber
  1128  006D  087B               	movf	??_displayNumber,w
  1129  006E  0020               	movlb	0	; select bank0
  1130  006F  00AC               	movwf	displayNumber@d3
  1131                           
  1132                           ;main.c: 39: d4 = number1 % 10;
  1133  0070  300A               	movlw	10
  1134  0071  00F1               	movwf	___lwmod@divisor
  1135  0072  3000               	movlw	0
  1136  0073  00F2               	movwf	___lwmod@divisor+1
  1137  0074  087A               	movf	displayNumber@number1+1,w
  1138  0075  00F4               	movwf	___lwmod@dividend+1
  1139  0076  0879               	movf	displayNumber@number1,w
  1140  0077  00F3               	movwf	___lwmod@dividend
  1141  0078  3181  2105  3180   	fcall	___lwmod
  1142  007B  0871               	movf	?___lwmod,w
  1143  007C  00FB               	movwf	??_displayNumber
  1144  007D  087B               	movf	??_displayNumber,w
  1145  007E  0020               	movlb	0	; select bank0
  1146  007F  00AD               	movwf	displayNumber@d4
  1147                           
  1148                           ;main.c: 41: LATCbits.LATC3 = 1;
  1149  0080  0022               	movlb	2	; select bank2
  1150  0081  158E               	bsf	14,3	;volatile
  1151                           
  1152                           ;main.c: 42: LATCbits.LATC4 = 1;
  1153  0082  160E               	bsf	14,4	;volatile
  1154                           
  1155                           ;main.c: 43: writeDigit(Digit[d1]);
  1156  0083  0020               	movlb	0	; select bank0
  1157  0084  082A               	movf	displayNumber@d1,w
  1158  0085  3E20               	addlw	(low (_Digit| 0))& (0+255)
  1159  0086  0086               	movwf	6
  1160  0087  0187               	clrf	7
  1161  0088  0801               	movf	1,w
  1162  0089  3181  2131  3180   	fcall	_writeDigit
  1163                           
  1164                           ;main.c: 44: _delay((unsigned long)((5)*(4000000/4000.0)));
  1165  008C  3007               	movlw	7
  1166  008D  00FC               	movwf	??_displayNumber+1
  1167  008E  307D               	movlw	125
  1168  008F  00FB               	movwf	??_displayNumber
  1169  0090                     u477:	
  1170  0090  0BFB               	decfsz	??_displayNumber,f
  1171  0091  2890               	goto	u477
  1172  0092  0BFC               	decfsz	??_displayNumber+1,f
  1173  0093  2890               	goto	u477
  1174                           
  1175                           ;main.c: 46: LATCbits.LATC3 = 0;
  1176  0094  0022               	movlb	2	; select bank2
  1177  0095  118E               	bcf	14,3	;volatile
  1178                           
  1179                           ;main.c: 47: LATCbits.LATC4 = 1;
  1180  0096  160E               	bsf	14,4	;volatile
  1181                           
  1182                           ;main.c: 48: writeDigit(Digit[d2]);
  1183  0097  0020               	movlb	0	; select bank0
  1184  0098  082B               	movf	displayNumber@d2,w
  1185  0099  3E20               	addlw	(low (_Digit| 0))& (0+255)
  1186  009A  0086               	movwf	6
  1187  009B  0187               	clrf	7
  1188  009C  0801               	movf	1,w
  1189  009D  3181  2131  3180   	fcall	_writeDigit
  1190                           
  1191                           ;main.c: 49: _delay((unsigned long)((5)*(4000000/4000.0)));
  1192  00A0  3007               	movlw	7
  1193  00A1  00FC               	movwf	??_displayNumber+1
  1194  00A2  307D               	movlw	125
  1195  00A3  00FB               	movwf	??_displayNumber
  1196  00A4                     u487:	
  1197  00A4  0BFB               	decfsz	??_displayNumber,f
  1198  00A5  28A4               	goto	u487
  1199  00A6  0BFC               	decfsz	??_displayNumber+1,f
  1200  00A7  28A4               	goto	u487
  1201                           
  1202                           ;main.c: 51: LATCbits.LATC3 = 1;
  1203  00A8  0022               	movlb	2	; select bank2
  1204  00A9  158E               	bsf	14,3	;volatile
  1205                           
  1206                           ;main.c: 52: LATCbits.LATC4 = 0;
  1207  00AA  120E               	bcf	14,4	;volatile
  1208                           
  1209                           ;main.c: 53: writeDigit(Digit[d3]);
  1210  00AB  0020               	movlb	0	; select bank0
  1211  00AC  082C               	movf	displayNumber@d3,w
  1212  00AD  3E20               	addlw	(low (_Digit| 0))& (0+255)
  1213  00AE  0086               	movwf	6
  1214  00AF  0187               	clrf	7
  1215  00B0  0801               	movf	1,w
  1216  00B1  3181  2131  3180   	fcall	_writeDigit
  1217                           
  1218                           ;main.c: 54: _delay((unsigned long)((5)*(4000000/4000.0)));
  1219  00B4  3007               	movlw	7
  1220  00B5  00FC               	movwf	??_displayNumber+1
  1221  00B6  307D               	movlw	125
  1222  00B7  00FB               	movwf	??_displayNumber
  1223  00B8                     u497:	
  1224  00B8  0BFB               	decfsz	??_displayNumber,f
  1225  00B9  28B8               	goto	u497
  1226  00BA  0BFC               	decfsz	??_displayNumber+1,f
  1227  00BB  28B8               	goto	u497
  1228                           
  1229                           ;main.c: 56: LATCbits.LATC3 = 0;
  1230  00BC  0022               	movlb	2	; select bank2
  1231  00BD  118E               	bcf	14,3	;volatile
  1232                           
  1233                           ;main.c: 57: LATCbits.LATC4 = 0;
  1234  00BE  120E               	bcf	14,4	;volatile
  1235                           
  1236                           ;main.c: 58: writeDigit(Digit[d4]);
  1237  00BF  0020               	movlb	0	; select bank0
  1238  00C0  082D               	movf	displayNumber@d4,w
  1239  00C1  3E20               	addlw	(low (_Digit| 0))& (0+255)
  1240  00C2  0086               	movwf	6
  1241  00C3  0187               	clrf	7
  1242  00C4  0801               	movf	1,w
  1243  00C5  3181  2131  3180   	fcall	_writeDigit
  1244                           
  1245                           ;main.c: 59: _delay((unsigned long)((5)*(4000000/4000.0)));
  1246  00C8  3007               	movlw	7
  1247  00C9  00FC               	movwf	??_displayNumber+1
  1248  00CA  307D               	movlw	125
  1249  00CB  00FB               	movwf	??_displayNumber
  1250  00CC                     u507:	
  1251  00CC  0BFB               	decfsz	??_displayNumber,f
  1252  00CD  28CC               	goto	u507
  1253  00CE  0BFC               	decfsz	??_displayNumber+1,f
  1254  00CF  28CC               	goto	u507
  1255  00D0  0008               	return
  1256  00D1                     __end_of_displayNumber:	
  1257                           
  1258                           	psect	text3
  1259  0131                     __ptext3:	
  1260 ;; *************** function _writeDigit *****************
  1261 ;; Defined at:
  1262 ;;		line 18 in file "main.c"
  1263 ;; Parameters:    Size  Location     Type
  1264 ;;  digit           1    wreg     unsigned char 
  1265 ;; Auto vars:     Size  Location     Type
  1266 ;;  digit           1    3[COMMON] unsigned char 
  1267 ;;  i               1    4[COMMON] unsigned char 
  1268 ;; Return value:  Size  Location     Type
  1269 ;;		None               void
  1270 ;; Registers used:
  1271 ;;		wreg, status,2, status,0
  1272 ;; Tracked objects:
  1273 ;;		On entry : 0/0
  1274 ;;		On exit  : 0/0
  1275 ;;		Unchanged: 0/0
  1276 ;; Data sizes:     COMMON   BANK0   BANK1   BANK2   BANK3   BANK4   BANK5   BANK6   BANK7   BANK8   BANK9  BANK10  BANK1
      +1  BANK12
  1277 ;;      Params:         0       0       0       0       0       0       0       0       0       0       0       0       
      +0       0
  1278 ;;      Locals:         2       0       0       0       0       0       0       0       0       0       0       0       
      +0       0
  1279 ;;      Temps:          2       0       0       0       0       0       0       0       0       0       0       0       
      +0       0
  1280 ;;      Totals:         4       0       0       0       0       0       0       0       0       0       0       0       
      +0       0
  1281 ;;Total ram usage:        4 bytes
  1282 ;; Hardware stack levels used:    1
  1283 ;; Hardware stack levels required when called:    2
  1284 ;; This function calls:
  1285 ;;		Nothing
  1286 ;; This function is called by:
  1287 ;;		_displayNumber
  1288 ;; This function uses a non-reentrant model
  1289 ;;
  1290                           
  1291                           
  1292                           ;psect for function _writeDigit
  1293  0131                     _writeDigit:	
  1294                           
  1295                           ;incstack = 0
  1296                           ; Regs used in _writeDigit: [wreg+status,2+status,0]
  1297                           ;writeDigit@digit stored from wreg
  1298  0131  00F3               	movwf	writeDigit@digit
  1299                           
  1300                           ;main.c: 19: unsigned char i;
  1301                           ;main.c: 20: LATCbits.LATC7 = 0;
  1302  0132  0022               	movlb	2	; select bank2
  1303  0133  138E               	bcf	14,7	;volatile
  1304                           
  1305                           ;main.c: 21: LATCbits.LATC5 = 0;
  1306  0134  128E               	bcf	14,5	;volatile
  1307                           
  1308                           ;main.c: 23: for (i = 0; i < 8; i++) {
  1309  0135  01F4               	clrf	writeDigit@i
  1310  0136  3008               	movlw	8
  1311  0137  0274               	subwf	writeDigit@i,w
  1312  0138  1803               	btfsc	3,0
  1313  0139  2956               	goto	l104
  1314  013A                     l774:	
  1315                           
  1316                           ;main.c: 24: LATCbits.LATC6 = (digit >> i) & 0x01;
  1317  013A  0873               	movf	writeDigit@digit,w
  1318  013B  00F1               	movwf	??_writeDigit
  1319  013C  0A74               	incf	writeDigit@i,w
  1320  013D  293F               	goto	u304
  1321  013E                     u305:	
  1322  013E  36F1               	lsrf	??_writeDigit,f
  1323  013F                     u304:	
  1324  013F  0B89               	decfsz	9,f
  1325  0140  293E               	goto	u305
  1326  0141  0871               	movf	??_writeDigit,w
  1327  0142  3901               	andlw	1
  1328  0143  00F2               	movwf	??_writeDigit+1
  1329  0144  0EF2               	swapf	??_writeDigit+1,f
  1330  0145  0DF2               	rlf	??_writeDigit+1,f
  1331  0146  0DF2               	rlf	??_writeDigit+1,f
  1332  0147  080E               	movf	14,w	;volatile
  1333  0148  0672               	xorwf	??_writeDigit+1,w
  1334  0149  39BF               	andlw	-65
  1335  014A  0672               	xorwf	??_writeDigit+1,w
  1336  014B  008E               	movwf	14	;volatile
  1337                           
  1338                           ;main.c: 25: LATCbits.LATC7 = 1;
  1339  014C  178E               	bsf	14,7	;volatile
  1340                           
  1341                           ;main.c: 26: LATCbits.LATC7 = 0;
  1342  014D  138E               	bcf	14,7	;volatile
  1343  014E  3001               	movlw	1
  1344  014F  00F1               	movwf	??_writeDigit
  1345  0150  0871               	movf	??_writeDigit,w
  1346  0151  07F4               	addwf	writeDigit@i,f
  1347  0152  3008               	movlw	8
  1348  0153  0274               	subwf	writeDigit@i,w
  1349  0154  1C03               	skipc
  1350  0155  293A               	goto	l774
  1351  0156                     l104:	
  1352                           
  1353                           ;main.c: 27: }
  1354                           ;main.c: 28: LATCbits.LATC5 = 1;
  1355  0156  168E               	bsf	14,5	;volatile
  1356  0157  0008               	return
  1357  0158                     __end_of_writeDigit:	
  1358                           
  1359                           	psect	text4
  1360  0105                     __ptext4:	
  1361 ;; *************** function ___lwmod *****************
  1362 ;; Defined at:
  1363 ;;		line 6 in file "C:\Program Files\Microchip\xc8\v1.34\sources\common\lwmod.c"
  1364 ;; Parameters:    Size  Location     Type
  1365 ;;  divisor         2    1[COMMON] unsigned int 
  1366 ;;  dividend        2    3[COMMON] unsigned int 
  1367 ;; Auto vars:     Size  Location     Type
  1368 ;;  counter         1    6[COMMON] unsigned char 
  1369 ;; Return value:  Size  Location     Type
  1370 ;;                  2    1[COMMON] unsigned int 
  1371 ;; Registers used:
  1372 ;;		wreg, status,2, status,0
  1373 ;; Tracked objects:
  1374 ;;		On entry : 0/0
  1375 ;;		On exit  : 0/0
  1376 ;;		Unchanged: 0/0
  1377 ;; Data sizes:     COMMON   BANK0   BANK1   BANK2   BANK3   BANK4   BANK5   BANK6   BANK7   BANK8   BANK9  BANK10  BANK1
      +1  BANK12
  1378 ;;      Params:         4       0       0       0       0       0       0       0       0       0       0       0       
      +0       0
  1379 ;;      Locals:         1       0       0       0       0       0       0       0       0       0       0       0       
      +0       0
  1380 ;;      Temps:          1       0       0       0       0       0       0       0       0       0       0       0       
      +0       0
  1381 ;;      Totals:         6       0       0       0       0       0       0       0       0       0       0       0       
      +0       0
  1382 ;;Total ram usage:        6 bytes
  1383 ;; Hardware stack levels used:    1
  1384 ;; Hardware stack levels required when called:    2
  1385 ;; This function calls:
  1386 ;;		Nothing
  1387 ;; This function is called by:
  1388 ;;		_displayNumber
  1389 ;; This function uses a non-reentrant model
  1390 ;;
  1391                           
  1392                           
  1393                           ;psect for function ___lwmod
  1394  0105                     ___lwmod:	
  1395                           
  1396                           ;incstack = 0
  1397                           ; Regs used in ___lwmod: [wreg+status,2+status,0]
  1398  0105  0871               	movf	___lwmod@divisor,w
  1399  0106  0472               	iorwf	___lwmod@divisor+1,w
  1400  0107  1903               	btfsc	3,2
  1401  0108  292C               	goto	l826
  1402  0109  01F6               	clrf	___lwmod@counter
  1403  010A  0AF6               	incf	___lwmod@counter,f
  1404  010B                     l816:	
  1405  010B  1BF2               	btfsc	___lwmod@divisor+1,7
  1406  010C  2917               	goto	l818
  1407  010D  3001               	movlw	1
  1408  010E                     u405:	
  1409  010E  35F1               	lslf	___lwmod@divisor,f
  1410  010F  0DF2               	rlf	___lwmod@divisor+1,f
  1411  0110  0B89               	decfsz	9,f
  1412  0111  290E               	goto	u405
  1413  0112  3001               	movlw	1
  1414  0113  00F5               	movwf	??___lwmod
  1415  0114  0875               	movf	??___lwmod,w
  1416  0115  07F6               	addwf	___lwmod@counter,f
  1417  0116  290B               	goto	l816
  1418  0117                     l818:	
  1419  0117  0872               	movf	___lwmod@divisor+1,w
  1420  0118  0274               	subwf	___lwmod@dividend+1,w
  1421  0119  1D03               	skipz
  1422  011A  291D               	goto	u425
  1423  011B  0871               	movf	___lwmod@divisor,w
  1424  011C  0273               	subwf	___lwmod@dividend,w
  1425  011D                     u425:	
  1426  011D  1C03               	skipc
  1427  011E  2923               	goto	l822
  1428  011F  0871               	movf	___lwmod@divisor,w
  1429  0120  02F3               	subwf	___lwmod@dividend,f
  1430  0121  0872               	movf	___lwmod@divisor+1,w
  1431  0122  3BF4               	subwfb	___lwmod@dividend+1,f
  1432  0123                     l822:	
  1433  0123  3001               	movlw	1
  1434  0124                     u435:	
  1435  0124  36F2               	lsrf	___lwmod@divisor+1,f
  1436  0125  0CF1               	rrf	___lwmod@divisor,f
  1437  0126  0B89               	decfsz	9,f
  1438  0127  2924               	goto	u435
  1439  0128  3001               	movlw	1
  1440  0129  02F6               	subwf	___lwmod@counter,f
  1441  012A  1D03               	btfss	3,2
  1442  012B  2917               	goto	l818
  1443  012C                     l826:	
  1444  012C  0874               	movf	___lwmod@dividend+1,w
  1445  012D  00F2               	movwf	?___lwmod+1
  1446  012E  0873               	movf	___lwmod@dividend,w
  1447  012F  00F1               	movwf	?___lwmod
  1448  0130  0008               	return
  1449  0131                     __end_of___lwmod:	
  1450                           
  1451                           	psect	text5
  1452  00D1                     __ptext5:	
  1453 ;; *************** function ___lwdiv *****************
  1454 ;; Defined at:
  1455 ;;		line 6 in file "C:\Program Files\Microchip\xc8\v1.34\sources\common\lwdiv.c"
  1456 ;; Parameters:    Size  Location     Type
  1457 ;;  divisor         2    1[COMMON] unsigned int 
  1458 ;;  dividend        2    3[COMMON] unsigned int 
  1459 ;; Auto vars:     Size  Location     Type
  1460 ;;  quotient        2    6[COMMON] unsigned int 
  1461 ;;  counter         1    8[COMMON] unsigned char 
  1462 ;; Return value:  Size  Location     Type
  1463 ;;                  2    1[COMMON] unsigned int 
  1464 ;; Registers used:
  1465 ;;		wreg, status,2, status,0
  1466 ;; Tracked objects:
  1467 ;;		On entry : 0/0
  1468 ;;		On exit  : 0/0
  1469 ;;		Unchanged: 0/0
  1470 ;; Data sizes:     COMMON   BANK0   BANK1   BANK2   BANK3   BANK4   BANK5   BANK6   BANK7   BANK8   BANK9  BANK10  BANK1
      +1  BANK12
  1471 ;;      Params:         4       0       0       0       0       0       0       0       0       0       0       0       
      +0       0
  1472 ;;      Locals:         3       0       0       0       0       0       0       0       0       0       0       0       
      +0       0
  1473 ;;      Temps:          1       0       0       0       0       0       0       0       0       0       0       0       
      +0       0
  1474 ;;      Totals:         8       0       0       0       0       0       0       0       0       0       0       0       
      +0       0
  1475 ;;Total ram usage:        8 bytes
  1476 ;; Hardware stack levels used:    1
  1477 ;; Hardware stack levels required when called:    2
  1478 ;; This function calls:
  1479 ;;		Nothing
  1480 ;; This function is called by:
  1481 ;;		_displayNumber
  1482 ;; This function uses a non-reentrant model
  1483 ;;
  1484                           
  1485                           
  1486                           ;psect for function ___lwdiv
  1487  00D1                     ___lwdiv:	
  1488                           
  1489                           ;incstack = 0
  1490                           ; Regs used in ___lwdiv: [wreg+status,2+status,0]
  1491  00D1  01F6               	clrf	___lwdiv@quotient
  1492  00D2  01F7               	clrf	___lwdiv@quotient+1
  1493  00D3  0871               	movf	___lwdiv@divisor,w
  1494  00D4  0472               	iorwf	___lwdiv@divisor+1,w
  1495  00D5  1903               	btfsc	3,2
  1496  00D6  2900               	goto	l804
  1497  00D7  01F8               	clrf	___lwdiv@counter
  1498  00D8  0AF8               	incf	___lwdiv@counter,f
  1499  00D9                     l792:	
  1500  00D9  1BF2               	btfsc	___lwdiv@divisor+1,7
  1501  00DA  28E5               	goto	l794
  1502  00DB  3001               	movlw	1
  1503  00DC                     u335:	
  1504  00DC  35F1               	lslf	___lwdiv@divisor,f
  1505  00DD  0DF2               	rlf	___lwdiv@divisor+1,f
  1506  00DE  0B89               	decfsz	9,f
  1507  00DF  28DC               	goto	u335
  1508  00E0  3001               	movlw	1
  1509  00E1  00F5               	movwf	??___lwdiv
  1510  00E2  0875               	movf	??___lwdiv,w
  1511  00E3  07F8               	addwf	___lwdiv@counter,f
  1512  00E4  28D9               	goto	l792
  1513  00E5                     l794:	
  1514  00E5  3001               	movlw	1
  1515  00E6                     u355:	
  1516  00E6  35F6               	lslf	___lwdiv@quotient,f
  1517  00E7  0DF7               	rlf	___lwdiv@quotient+1,f
  1518  00E8  0B89               	decfsz	9,f
  1519  00E9  28E6               	goto	u355
  1520  00EA  0872               	movf	___lwdiv@divisor+1,w
  1521  00EB  0274               	subwf	___lwdiv@dividend+1,w
  1522  00EC  1D03               	skipz
  1523  00ED  28F0               	goto	u365
  1524  00EE  0871               	movf	___lwdiv@divisor,w
  1525  00EF  0273               	subwf	___lwdiv@dividend,w
  1526  00F0                     u365:	
  1527  00F0  1C03               	skipc
  1528  00F1  28F7               	goto	l800
  1529  00F2  0871               	movf	___lwdiv@divisor,w
  1530  00F3  02F3               	subwf	___lwdiv@dividend,f
  1531  00F4  0872               	movf	___lwdiv@divisor+1,w
  1532  00F5  3BF4               	subwfb	___lwdiv@dividend+1,f
  1533  00F6  1476               	bsf	___lwdiv@quotient,0
  1534  00F7                     l800:	
  1535  00F7  3001               	movlw	1
  1536  00F8                     u375:	
  1537  00F8  36F2               	lsrf	___lwdiv@divisor+1,f
  1538  00F9  0CF1               	rrf	___lwdiv@divisor,f
  1539  00FA  0B89               	decfsz	9,f
  1540  00FB  28F8               	goto	u375
  1541  00FC  3001               	movlw	1
  1542  00FD  02F8               	subwf	___lwdiv@counter,f
  1543  00FE  1D03               	btfss	3,2
  1544  00FF  28E5               	goto	l794
  1545  0100                     l804:	
  1546  0100  0877               	movf	___lwdiv@quotient+1,w
  1547  0101  00F2               	movwf	?___lwdiv+1
  1548  0102  0876               	movf	___lwdiv@quotient,w
  1549  0103  00F1               	movwf	?___lwdiv
  1550  0104  0008               	return
  1551  0105                     __end_of___lwdiv:	
  1552                           
  1553                           	psect	intentry
  1554  0004                     __pintentry:	
  1555 ;; *************** function _INTERRUPT_InterruptManager *****************
  1556 ;; Defined at:
  1557 ;;		line 52 in file "mcc_generated_files/interrupt_manager.c"
  1558 ;; Parameters:    Size  Location     Type
  1559 ;;		None
  1560 ;; Auto vars:     Size  Location     Type
  1561 ;;		None
  1562 ;; Return value:  Size  Location     Type
  1563 ;;		None               void
  1564 ;; Registers used:
  1565 ;;		status,2, status,0, pclath, cstack
  1566 ;; Tracked objects:
  1567 ;;		On entry : 0/0
  1568 ;;		On exit  : 0/0
  1569 ;;		Unchanged: 0/0
  1570 ;; Data sizes:     COMMON   BANK0   BANK1   BANK2   BANK3   BANK4   BANK5   BANK6   BANK7   BANK8   BANK9  BANK10  BANK1
      +1  BANK12
  1571 ;;      Params:         0       0       0       0       0       0       0       0       0       0       0       0       
      +0       0
  1572 ;;      Locals:         0       0       0       0       0       0       0       0       0       0       0       0       
      +0       0
  1573 ;;      Temps:          1       0       0       0       0       0       0       0       0       0       0       0       
      +0       0
  1574 ;;      Totals:         1       0       0       0       0       0       0       0       0       0       0       0       
      +0       0
  1575 ;;Total ram usage:        1 bytes
  1576 ;; Hardware stack levels used:    1
  1577 ;; Hardware stack levels required when called:    1
  1578 ;; This function calls:
  1579 ;;		_PIN_MANAGER_IOC
  1580 ;; This function is called by:
  1581 ;;		Interrupt level 1
  1582 ;; This function uses a non-reentrant model
  1583 ;;
  1584                           
  1585  0004                     _INTERRUPT_InterruptManager:	
  1586                           
  1587                           ;incstack = 0
  1588                           ; Regs used in _INTERRUPT_InterruptManager: [status,2+status,0+pclath+cstack]
  1589  0004  3180               	pagesel	$
  1590  0005  0020               	movlb	0	; select bank0
  1591  0006  087F               	movf	127,w
  1592  0007  00F0               	movwf	??_INTERRUPT_InterruptManager
  1593                           
  1594                           ;interrupt_manager.c: 55: if(INTCONbits.IOCIE == 1 && INTCONbits.IOCIF == 1)
  1595  0008  198B               	btfsc	11,3	;volatile
  1596  0009  1C0B               	btfss	11,0	;volatile
  1597  000A  280E               	goto	i1l88
  1598                           
  1599                           ;interrupt_manager.c: 56: {
  1600                           ;interrupt_manager.c: 57: PIN_MANAGER_IOC();
  1601  000B  3181  2174         	fcall	_PIN_MANAGER_IOC
  1602                           
  1603                           ;interrupt_manager.c: 60: INTCONbits.IOCIF = 0;
  1604  000D  100B               	bcf	11,0	;volatile
  1605  000E                     i1l88:	
  1606                           ;interrupt_manager.c: 62: else
  1607                           ;interrupt_manager.c: 63: {
  1608                           
  1609                           ;interrupt_manager.c: 61: }
  1610                           
  1611  000E  0870               	movf	??_INTERRUPT_InterruptManager,w
  1612  000F  0020               	movlb	0	; select bank0
  1613  0010  00FF               	movwf	127
  1614  0011  0009               	retfie
  1615  0012                     __end_of_INTERRUPT_InterruptManager:	
  1616                           
  1617                           	psect	text7
  1618  0174                     __ptext7:	
  1619 ;; *************** function _PIN_MANAGER_IOC *****************
  1620 ;; Defined at:
  1621 ;;		line 93 in file "mcc_generated_files/pin_manager.c"
  1622 ;; Parameters:    Size  Location     Type
  1623 ;;		None
  1624 ;; Auto vars:     Size  Location     Type
  1625 ;;		None
  1626 ;; Return value:  Size  Location     Type
  1627 ;;		None               void
  1628 ;; Registers used:
  1629 ;;		None
  1630 ;; Tracked objects:
  1631 ;;		On entry : 0/0
  1632 ;;		On exit  : 0/0
  1633 ;;		Unchanged: 0/0
  1634 ;; Data sizes:     COMMON   BANK0   BANK1   BANK2   BANK3   BANK4   BANK5   BANK6   BANK7   BANK8   BANK9  BANK10  BANK1
      +1  BANK12
  1635 ;;      Params:         0       0       0       0       0       0       0       0       0       0       0       0       
      +0       0
  1636 ;;      Locals:         0       0       0       0       0       0       0       0       0       0       0       0       
      +0       0
  1637 ;;      Temps:          0       0       0       0       0       0       0       0       0       0       0       0       
      +0       0
  1638 ;;      Totals:         0       0       0       0       0       0       0       0       0       0       0       0       
      +0       0
  1639 ;;Total ram usage:        0 bytes
  1640 ;; Hardware stack levels used:    1
  1641 ;; This function calls:
  1642 ;;		Nothing
  1643 ;; This function is called by:
  1644 ;;		_INTERRUPT_InterruptManager
  1645 ;; This function uses a non-reentrant model
  1646 ;;
  1647                           
  1648                           
  1649                           ;psect for function _PIN_MANAGER_IOC
  1650  0174                     _PIN_MANAGER_IOC:	
  1651                           
  1652                           ;pin_manager.c: 97: if((IOCBN4 == 1) && (IOCBF4 == 1))
  1653                           
  1654                           ;incstack = 0
  1655                           ; Regs used in _PIN_MANAGER_IOC: []
  1656  0174  0027               	movlb	7	; select bank7
  1657  0175  1A15               	btfsc	21,4	;volatile
  1658  0176  1E16               	btfss	22,4	;volatile
  1659  0177  297A               	goto	i1l56
  1660                           
  1661                           ;pin_manager.c: 98: {
  1662                           ;pin_manager.c: 101: IOCBF4 = 0;
  1663  0178  1216               	bcf	22,4	;volatile
  1664                           
  1665                           ;pin_manager.c: 102: }
  1666  0179  0008               	return
  1667  017A                     i1l56:	
  1668                           
  1669                           ;pin_manager.c: 103: else if((IOCBN5 == 1) && (IOCBF5 == 1))
  1670  017A  1A95               	btfsc	21,5	;volatile
  1671  017B  1E96               	btfss	22,5	;volatile
  1672  017C  297F               	goto	i1l58
  1673                           
  1674                           ;pin_manager.c: 104: {
  1675                           ;pin_manager.c: 107: IOCBF5 = 0;
  1676  017D  1296               	bcf	22,5	;volatile
  1677                           
  1678                           ;pin_manager.c: 108: }
  1679  017E  0008               	return
  1680  017F                     i1l58:	
  1681                           
  1682                           ;pin_manager.c: 109: else if((IOCBN6 == 1) && (IOCBF6 == 1))
  1683  017F  1B15               	btfsc	21,6	;volatile
  1684  0180  1F16               	btfss	22,6	;volatile
  1685  0181  2984               	goto	i1l60
  1686                           
  1687                           ;pin_manager.c: 110: {
  1688                           ;pin_manager.c: 114: IOCBF6 = 0;
  1689  0182  1316               	bcf	22,6	;volatile
  1690                           
  1691                           ;pin_manager.c: 115: }
  1692  0183  0008               	return
  1693  0184                     i1l60:	
  1694                           
  1695                           ;pin_manager.c: 116: else if((IOCBN7 == 1) && (IOCBF7 == 1))
  1696  0184  1F95               	btfss	21,7	;volatile
  1697  0185  0008               	return
  1698  0186  1F96               	btfss	22,7	;volatile
  1699  0187  0008               	return
  1700                           
  1701                           ;pin_manager.c: 117: {
  1702                           ;pin_manager.c: 121: IOCBF7 = 0;
  1703  0188  1396               	bcf	22,7	;volatile
  1704  0189  0008               	return
  1705  018A                     __end_of_PIN_MANAGER_IOC:	
  1706  007E                     btemp	set	126	;btemp
  1707  007E                     wtemp	set	126
  1708  007E                     wtemp0	set	126
  1709  0080                     wtemp1	set	128
  1710  0082                     wtemp2	set	130
  1711  0084                     wtemp3	set	132
  1712  0086                     wtemp4	set	134
  1713  0088                     wtemp5	set	136
  1714  007F                     wtemp6	set	127
  1715  007E                     ttemp	set	126
  1716  007E                     ttemp0	set	126
  1717  0081                     ttemp1	set	129
  1718  0084                     ttemp2	set	132
  1719  0087                     ttemp3	set	135
  1720  007F                     ttemp4	set	127
  1721  007E                     ltemp	set	126
  1722  007E                     ltemp0	set	126
  1723  0082                     ltemp1	set	130
  1724  0086                     ltemp2	set	134
  1725  0080                     ltemp3	set	128


Data Sizes:
    Strings     0
    Constant    0
    Data        10
    BSS         0
    Persistent  0
    Stack       0

Auto Spaces:
    Space          Size  Autos    Used
    COMMON           14     13      13
    BANK0            80      4      14
    BANK1            80      0       0
    BANK2            80      0       0
    BANK3            80      0       0
    BANK4            80      0       0
    BANK5            80      0       0
    BANK6            80      0       0
    BANK7            80      0       0
    BANK8            80      0       0
    BANK9            80      0       0
    BANK10           80      0       0
    BANK11           80      0       0
    BANK12           48      0       0

Pointer List with Targets:

    None.

Critical Paths under _main in COMMON

    _main->_displayNumber
    _displayNumber->___lwdiv

Critical Paths under _INTERRUPT_InterruptManager in COMMON

    None.

Critical Paths under _main in BANK0

    _main->_displayNumber

Critical Paths under _INTERRUPT_InterruptManager in BANK0

    None.

Critical Paths under _main in BANK1

    None.

Critical Paths under _INTERRUPT_InterruptManager in BANK1

    None.

Critical Paths under _main in BANK2

    None.

Critical Paths under _INTERRUPT_InterruptManager in BANK2

    None.

Critical Paths under _main in BANK3

    None.

Critical Paths under _INTERRUPT_InterruptManager in BANK3

    None.

Critical Paths under _main in BANK4

    None.

Critical Paths under _INTERRUPT_InterruptManager in BANK4

    None.

Critical Paths under _main in BANK5

    None.

Critical Paths under _INTERRUPT_InterruptManager in BANK5

    None.

Critical Paths under _main in BANK6

    None.

Critical Paths under _INTERRUPT_InterruptManager in BANK6

    None.

Critical Paths under _main in BANK7

    None.

Critical Paths under _INTERRUPT_InterruptManager in BANK7

    None.

Critical Paths under _main in BANK8

    None.

Critical Paths under _INTERRUPT_InterruptManager in BANK8

    None.

Critical Paths under _main in BANK9

    None.

Critical Paths under _INTERRUPT_InterruptManager in BANK9

    None.

Critical Paths under _main in BANK10

    None.

Critical Paths under _INTERRUPT_InterruptManager in BANK10

    None.

Critical Paths under _main in BANK11

    None.

Critical Paths under _INTERRUPT_InterruptManager in BANK11

    None.

Critical Paths under _main in BANK12

    None.

Critical Paths under _INTERRUPT_InterruptManager in BANK12

    None.

Call Graph Tables:

 ---------------------------------------------------------------------------------
 (Depth) Function   	        Calls       Base Space   Used Autos Params    Refs
 ---------------------------------------------------------------------------------
 (0) _main                                                 0     0      0    1548
                      _displayNumber
                      _relay_control
 ---------------------------------------------------------------------------------
 (1) _relay_control                                        1     1      0      15
                                              1 COMMON     1     1      0
 ---------------------------------------------------------------------------------
 (1) _displayNumber                                        8     6      2    1533
                                              9 COMMON     4     2      2
                                              0 BANK0      4     4      0
                            ___lwdiv
                            ___lwmod
                         _writeDigit
 ---------------------------------------------------------------------------------
 (2) _writeDigit                                           4     4      0      90
                                              1 COMMON     4     4      0
 ---------------------------------------------------------------------------------
 (2) ___lwmod                                              6     2      4     543
                                              1 COMMON     6     2      4
 ---------------------------------------------------------------------------------
 (2) ___lwdiv                                              8     4      4     546
                                              1 COMMON     8     4      4
 ---------------------------------------------------------------------------------
 Estimated maximum stack depth 2
 ---------------------------------------------------------------------------------
 (Depth) Function   	        Calls       Base Space   Used Autos Params    Refs
 ---------------------------------------------------------------------------------
 (3) _INTERRUPT_InterruptManager                           1     1      0       0
                                              0 COMMON     1     1      0
                    _PIN_MANAGER_IOC
 ---------------------------------------------------------------------------------
 (4) _PIN_MANAGER_IOC                                      0     0      0       0
 ---------------------------------------------------------------------------------
 Estimated maximum stack depth 4
 ---------------------------------------------------------------------------------

 Call Graph Graphs:

 _main (ROOT)
   _displayNumber
     ___lwdiv
     ___lwmod
     _writeDigit
   _relay_control

 _INTERRUPT_InterruptManager (ROOT)
   _PIN_MANAGER_IOC

 Address spaces:
Name               Size   Autos  Total    Cost      Usage
BIGRAM             3F0      0       0       0        0.0%
EEDATA             100      0       0       0        0.0%
NULL                 0      0       0       0        0.0%
CODE                 0      0       0       0        0.0%
BITCOMMON            E      0       0       1        0.0%
BITSFR0              0      0       0       1        0.0%
SFR0                 0      0       0       1        0.0%
COMMON               E      D       D       2       92.9%
BITSFR1              0      0       0       2        0.0%
SFR1                 0      0       0       2        0.0%
BITSFR2              0      0       0       3        0.0%
SFR2                 0      0       0       3        0.0%
STACK                0      0       0       3        0.0%
BITBANK0            50      0       0       4        0.0%
BITSFR3              0      0       0       4        0.0%
SFR3                 0      0       0       4        0.0%
BANK0               50      4       E       5       17.5%
BITSFR4              0      0       0       5        0.0%
SFR4                 0      0       0       5        0.0%
BITBANK1            50      0       0       6        0.0%
BITSFR5              0      0       0       6        0.0%
SFR5                 0      0       0       6        0.0%
BANK1               50      0       0       7        0.0%
BITSFR6              0      0       0       7        0.0%
SFR6                 0      0       0       7        0.0%
BITBANK2            50      0       0       8        0.0%
BITSFR7              0      0       0       8        0.0%
SFR7                 0      0       0       8        0.0%
BANK2               50      0       0       9        0.0%
BITSFR8              0      0       0       9        0.0%
SFR8                 0      0       0       9        0.0%
BITBANK3            50      0       0      10        0.0%
BITSFR9              0      0       0      10        0.0%
SFR9                 0      0       0      10        0.0%
BANK3               50      0       0      11        0.0%
BITSFR10             0      0       0      11        0.0%
SFR10                0      0       0      11        0.0%
BITBANK4            50      0       0      12        0.0%
BITSFR11             0      0       0      12        0.0%
SFR11                0      0       0      12        0.0%
BANK4               50      0       0      13        0.0%
BITSFR12             0      0       0      13        0.0%
SFR12                0      0       0      13        0.0%
BITBANK5            50      0       0      14        0.0%
BITSFR13             0      0       0      14        0.0%
SFR13                0      0       0      14        0.0%
BANK5               50      0       0      15        0.0%
BITSFR14             0      0       0      15        0.0%
SFR14                0      0       0      15        0.0%
BITBANK6            50      0       0      16        0.0%
BITSFR15             0      0       0      16        0.0%
SFR15                0      0       0      16        0.0%
BANK6               50      0       0      17        0.0%
BITSFR16             0      0       0      17        0.0%
SFR16                0      0       0      17        0.0%
BITBANK7            50      0       0      18        0.0%
BITSFR17             0      0       0      18        0.0%
SFR17                0      0       0      18        0.0%
BANK7               50      0       0      19        0.0%
BITSFR18             0      0       0      19        0.0%
SFR18                0      0       0      19        0.0%
BITSFR19             0      0       0      20        0.0%
SFR19                0      0       0      20        0.0%
ABS                  0      0      1B      20        0.0%
BITBANK8            50      0       0      21        0.0%
BITSFR20             0      0       0      21        0.0%
SFR20                0      0       0      21        0.0%
BANK8               50      0       0      22        0.0%
BITSFR21             0      0       0      22        0.0%
SFR21                0      0       0      22        0.0%
BITBANK9            50      0       0      23        0.0%
BITSFR22             0      0       0      23        0.0%
SFR22                0      0       0      23        0.0%
BANK9               50      0       0      24        0.0%
BITSFR23             0      0       0      24        0.0%
SFR23                0      0       0      24        0.0%
BITBANK10           50      0       0      25        0.0%
BITSFR24             0      0       0      25        0.0%
SFR24                0      0       0      25        0.0%
BANK10              50      0       0      26        0.0%
BITSFR25             0      0       0      26        0.0%
SFR25                0      0       0      26        0.0%
BITBANK11           50      0       0      27        0.0%
BITSFR26             0      0       0      27        0.0%
SFR26                0      0       0      27        0.0%
BANK11              50      0       0      28        0.0%
BITSFR27             0      0       0      28        0.0%
SFR27                0      0       0      28        0.0%
BITBANK12           30      0       0      29        0.0%
BITSFR28             0      0       0      29        0.0%
SFR28                0      0       0      29        0.0%
BANK12              30      0       0      30        0.0%
BITSFR29             0      0       0      30        0.0%
SFR29                0      0       0      30        0.0%
BITSFR30             0      0       0      31        0.0%
SFR30                0      0       0      31        0.0%
DATA                 0      0      1B      31        0.0%
BITSFR31             0      0       0      32        0.0%
SFR31                0      0       0      32        0.0%


Microchip Technology PIC Macro Assembler V1.34 build -361300703 
Symbol Table                                                                                   Thu May 02 12:15:21 2024

                        __CFG_CP$OFF 0000                                  l104 0156  
                                l800 00F7                                  l804 0100  
                                l822 0123                                  l816 010B  
                                l818 0117                                  l826 012C  
                                l774 013A                                  l792 00D9  
                                l794 00E5                                  l866 0168  
                                l868 015D                                  u304 013F  
                                u305 013E                                  u405 010E  
                                u335 00DC                                  u425 011D  
                       __CFG_CPD$OFF 0000                                  u355 00E6  
                                u435 0124                                  u507 00CC  
                                u365 00F0                                  u375 00F8  
                                u477 0090                                  u487 00A4  
                                u497 00B8                         __CFG_BORV$LO 0000  
                                wreg 0009                         __CFG_IESO$ON 0000  
                     ?_displayNumber 0079                         __CFG_LVP$OFF 0000  
                               _LATA 010C                                 _LATB 010D  
                               _LATC 010E                                 i1l60 0184  
                               i1l56 017A                                 i1l58 017F  
                               i1l88 000E                                 _WPUA 020C  
                               _WPUB 020D                                 _WPUC 020E  
                       __CFG_WRT$OFF 0000                        __CFG_FCMEN$ON 0000  
                               _main 0158                                 fsr0h 0005  
                               fsr1h 0007                                 fsr0l 0004  
                               indf1 0001                                 fsr1l 0006  
                               btemp 007E                        __CFG_BOREN$ON 0000  
                               ltemp 007E                                 start 0012  
                               ttemp 007E                                 wtemp 007E  
                      __CFG_MCLRE$ON 0000                                ?_main 0070  
                      __CFG_WDTE$OFF 0000                      __end_of___lwdiv 0105  
                    __end_of___lwmod 0131                                _PORTC 000E  
                              _TRISA 008C                                _TRISB 008D  
                              _TRISC 008E                                _Digit 0020  
            __end_of_PIN_MANAGER_IOC 018A                                ltemp0 007E  
                              ltemp1 0082                                ltemp2 0086  
                              ltemp3 0080                __end_of_relay_control 019C  
                              ttemp0 007E                                ttemp1 0081  
                              ttemp2 0084                                ttemp3 0087  
                              ttemp4 007F                                status 0003  
                              wtemp0 007E                                wtemp1 0080  
                              wtemp2 0082                                wtemp3 0084  
                              wtemp4 0086                                wtemp5 0088  
                              wtemp6 007F                      __initialization 0014  
                       __end_of_main 0174          ?_INTERRUPT_InterruptManager 0070  
                             ??_main 007D                       __CFG_PLLEN$OFF 0000  
                    ??_displayNumber 007B                               _ANSELA 018C  
                             _ANSELB 018D                               _ANSELC 018E  
                             _IOCBF4 1CB4                               _IOCBF5 1CB5  
                             _IOCBF6 1CB6                               _IOCBF7 1CB7  
                             _IOCBN4 1CAC                               _IOCBN5 1CAD  
                             _IOCBN6 1CAE                               _IOCBN7 1CAF  
                             _OSCCON 0099                       __CFG_PWRTE$OFF 0000  
                     __CFG_STVREN$ON 0000                            ??___lwdiv 0075  
                          ??___lwmod 0075                     ?_PIN_MANAGER_IOC 0070  
            __end_of__initialization 001F                   relay_control@state 0071  
                     __pcstackCOMMON 0070                         __pidataBANK0 018A  
               displayNumber@number1 0079                       _OPTION_REGbits 0095  
                         __pmaintext 0158                           __pintentry 0004  
                            _APFCON0 011D                              _APFCON1 011E  
                            _OSCSTAT 009A                              _OSCTUNE 0098  
                            ___lwdiv 00D1                              ___lwmod 0105  
                            __ptext1 0194                              __ptext2 0022  
                            __ptext3 0131                              __ptext4 0105  
                            __ptext5 00D1                              __ptext7 0174  
               end_of_initialization 001F                              init_ram 019C  
                            initloop 019D                            _PORTBbits 000D  
             __size_of_relay_control 0008                     __CFG_FOSC$INTOSC 0000  
              __end_of_displayNumber 00D1                           _writeDigit 0131  
                start_initialization 0014                        _relay_control 0194  
           __size_of_PIN_MANAGER_IOC 0016                          __pdataBANK0 0020  
                          ___latbits 0002                        __pcstackBANK0 002A  
                     ?_relay_control 0070                     ___lwdiv@dividend 0073  
                        ?_writeDigit 0070                             ?___lwdiv 0071  
                           ?___lwmod 0071         ??_INTERRUPT_InterruptManager 0070  
                   ___lwdiv@quotient 0076                             _LATCbits 010E  
__size_of_INTERRUPT_InterruptManager 000E                          writeDigit@i 0074  
                    writeDigit@digit 0073                    ??_PIN_MANAGER_IOC 0070  
                    ??_relay_control 0071                  __size_of_writeDigit 0027  
                   __size_of___lwdiv 0034                     __size_of___lwmod 002C  
                    ___lwdiv@divisor 0071                      ___lwdiv@counter 0078  
                      __size_of_main 001C               __size_of_displayNumber 00AF  
 __end_of_INTERRUPT_InterruptManager 0012           _INTERRUPT_InterruptManager 0004  
                    displayNumber@d1 002A                      displayNumber@d2 002B  
                    displayNumber@d3 002C                      displayNumber@d4 002D  
                         _INTCONbits 000B                             intlevel1 0000  
                   ___lwmod@dividend 0073                    __CFG_CLKOUTEN$OFF 0000  
                       ??_writeDigit 0071                      ___lwmod@divisor 0071  
                    ___lwmod@counter 0076                        _displayNumber 0022  
                 __end_of_writeDigit 0158                      _PIN_MANAGER_IOC 0174  
